Certificate:
    Data:
        Version: 3 (0x2)
        Serial Number:
            c4:14:2a:2c:30:7a:cb:e1
        Signature Algorithm: sha1WithRSAEncryption
        Issuer: C=US, ST=CA, O=Internet Widgits Pty Ltd, CN=samvedana/emailAddress=samvedana@abc.com
        Validity
            Not Before: Dec 15 00:16:13 2014 GMT
            Not After : Dec 14 00:16:13 2017 GMT
        Subject: C=US, ST=CA, O=Internet Widgits Pty Ltd, CN=samvedana/emailAddress=samvedana@abc.com
        Subject Public Key Info:
            Public Key Algorithm: rsaEncryption
            RSA Public Key: (1024 bit)
                Modulus (1024 bit):
                    00:c0:8d:f4:10:64:da:4b:2c:78:36:8e:8d:31:78:
                    bb:9e:6a:1c:34:84:9f:9e:9a:33:75:a6:ae:53:1f:
                    dc:31:c4:3f:33:1a:f5:53:e5:7a:b9:e0:1a:7b:52:
                    00:e3:1f:9c:2a:6c:85:c6:6e:87:c2:f1:cc:92:0b:
                    14:bc:65:f7:03:f5:a6:ad:62:e2:72:bb:3e:58:11:
                    ab:68:d7:57:6b:22:7d:52:ef:75:71:25:fd:60:84:
                    f0:5d:46:e2:f2:67:34:46:79:83:4c:89:93:f9:e8:
                    3c:d1:18:b2:02:ef:db:11:e1:de:49:9b:b9:92:1b:
                    5b:f9:4b:35:f0:08:0b:e8:79
                Exponent: 65537 (0x10001)
        X509v3 extensions:
            X509v3 Subject Key Identifier: 
                80:19:E3:6D:CA:92:BB:62:AA:11:BF:E0:60:48:30:97:D7:69:84:52
            X509v3 Authority Key Identifier: 
                keyid:80:19:E3:6D:CA:92:BB:62:AA:11:BF:E0:60:48:30:97:D7:69:84:52
                DirName:/C=US/ST=CA/O=Internet Widgits Pty Ltd/CN=samvedana/emailAddress=samvedana@abc.com
                serial:C4:14:2A:2C:30:7A:CB:E1

            X509v3 Basic Constraints: 
                CA:TRUE
    Signature Algorithm: sha1WithRSAEncryption
        1c:a6:b3:ae:4b:5c:6b:c0:66:e1:40:cb:e8:21:88:9a:a5:fc:
        82:33:fa:ed:ba:26:5d:a9:24:f9:d0:27:a0:46:33:c3:47:c7:
        38:93:90:6c:6e:f5:8e:dd:7a:67:34:7a:ee:e4:df:9f:3a:ff:
        7c:39:3b:f7:1a:91:6e:15:0a:26:a5:d0:92:8e:46:e3:04:41:
        2c:fa:7a:36:91:15:5a:39:cc:63:25:70:cd:ee:ed:29:3a:a1:
        c8:65:f8:dc:e7:cb:d6:f0:89:f3:a8:29:94:ef:a9:6e:c3:1f:
        e2:14:51:81:cf:69:82:d2:75:f2:de:f5:70:f0:90:32:62:97:
        cc:3f
-----BEGIN CERTIFICATE-----
MIIDPTCCAqagAwIBAgIJAMQUKiwwesvhMA0GCSqGSIb3DQEBBQUAMHMxCzAJBgNV
BAYTAlVTMQswCQYDVQQIEwJDQTEhMB8GA1UEChMYSW50ZXJuZXQgV2lkZ2l0cyBQ
dHkgTHRkMRIwEAYDVQQDEwlzYW12ZWRhbmExIDAeBgkqhkiG9w0BCQEWEXNhbXZl
ZGFuYUBhYmMuY29tMB4XDTE0MTIxNTAwMTYxM1oXDTE3MTIxNDAwMTYxM1owczEL
MAkGA1UEBhMCVVMxCzAJBgNVBAgTAkNBMSEwHwYDVQQKExhJbnRlcm5ldCBXaWRn
aXRzIFB0eSBMdGQxEjAQBgNVBAMTCXNhbXZlZGFuYTEgMB4GCSqGSIb3DQEJARYR
c2FtdmVkYW5hQGFiYy5jb20wgZ8wDQYJKoZIhvcNAQEBBQADgY0AMIGJAoGBAMCN
9BBk2ksseDaOjTF4u55qHDSEn56aM3WmrlMf3DHEPzMa9VPlerngGntSAOMfnCps
hcZuh8LxzJILFLxl9wP1pq1i4nK7PlgRq2jXV2sifVLvdXEl/WCE8F1G4vJnNEZ5
g0yJk/noPNEYsgLv2xHh3kmbuZIbW/lLNfAIC+h5AgMBAAGjgdgwgdUwHQYDVR0O
BBYEFIAZ423KkrtiqhG/4GBIMJfXaYRSMIGlBgNVHSMEgZ0wgZqAFIAZ423Kkrti
qhG/4GBIMJfXaYRSoXekdTBzMQswCQYDVQQGEwJVUzELMAkGA1UECBMCQ0ExITAf
BgNVBAoTGEludGVybmV0IFdpZGdpdHMgUHR5IEx0ZDESMBAGA1UEAxMJc2FtdmVk
YW5hMSAwHgYJKoZIhvcNAQkBFhFzYW12ZWRhbmFAYWJjLmNvbYIJAMQUKiwwesvh
MAwGA1UdEwQFMAMBAf8wDQYJKoZIhvcNAQEFBQADgYEAHKazrktca8Bm4UDL6CGI
mqX8gjP67bomXakk+dAnoEYzw0fHOJOQbG71jt16ZzR67uTfnzr/fDk79xqRbhUK
JqXQko5G4wRBLPp6NpEVWjnMYyVwze7tKTqhyGX43OfL1vCJ86gplO+pbsMf4hRR
gc9pgtJ18t71cPCQMmKXzD8=
-----END CERTIFICATE-----
-----BEGIN RSA PRIVATE KEY-----
MIICXAIBAAKBgQC2m1Ufcym2WIlWXblRpLhVati+FnOT1aQHnzowXB2HFBE2ge1j
ZLz2S7aQmQuvt4hBe8qzj8aHWB9FrGKzRqJutxCuSZhwgfiKo1jBYrc6wmzQqP7s
ZjDkAP9Y2R2qPfYDG+HLN9xrNxsVCxp570DTcnya5v02oXssASBK2oarLwIDAQAB
AoGAFZud4AHVnsEtRy4B/to6AcmJ6jxn4sd2CHzb+tr7l39VZhjLyWYjQhXFfajO
jDVwhycp3kOWH2/bC3iRmVszXylKcjsEa4d7nd+dk2ZVhkLq1HSuF4HRTLFSzIcs
c07Bjii4k82zZXpFug6MNyXgrJiDBFsYOKsg2quKA0mxJ4ECQQDiqyTeQmR2nJZs
0KNmvAEGr3Nd4MEu3wvRCZYHQ8uWSjOYFdoxIlTohfyrdrUiMPXbU5tHzgqDoXtS
S9L85r3vAkEAzjyNkDiM2zlyG/Fr7RiNd7N7WX4XrTVOYQf0eBhPgztHbz1RHKwv
ApWczfQPu5rkYnRVesmBou7sQTYFdaAmwQJAYmXtUVb9CcicPIyuApEm2OIdcOl6
s4A8PvisWmcB4DJCB4mk+KNwvKg9samMpFUgxZ+bzyYQxme5g1ZLN2JrnQJAJ/pU
9r//jf90vzXtVeiMg8enAZIPxOOwbd685QrRXv7+ufGI56X49udJniLRaex8mRkz
+LlXB96IrZtrM4H4AQJBAIcqUViq4r5wiU6MCmOCLmb73JK5eGbjx03QJotd8FdL
7sS5GVe5r9+PXiMbyKwme3rYD3gyju2a1+REOAuj3BQ=
-----END RSA PRIVATE KEY-----
